; Function Attrs: null_pointer_is_valid sspstrong uwtable
define internal fastcc range(i32 6, 0) i32 @dissect_rdm_pd_endpoint_responders(ptr noundef %0, ptr noundef %1, i8 noundef zeroext %2, i8 noundef zeroext %3) unnamed_addr #1 {
  switch i8 %2, label %.loopexit [
    i8 32, label %5
    i8 33, label %8
  ]

5:                                                ; preds = %4
  %6 = load i32, ptr @hf_rdm_pd_endpoint_responders_endpoint_id, align 4
  %7 = tail call ptr @proto_tree_add_item(ptr noundef %1, i32 noundef %6, ptr noundef %0, i32 noundef 23, i32 noundef 2, i32 noundef 0)
  br label %.loopexit

8:                                                ; preds = %4
  %9 = load i32, ptr @hf_rdm_pd_endpoint_responders_endpoint_id, align 4
  %10 = tail call ptr @proto_tree_add_item(ptr noundef %1, i32 noundef %9, ptr noundef %0, i32 noundef 23, i32 noundef 2, i32 noundef 0)
  %11 = load i32, ptr @hf_rdm_pd_endpoint_responders_change_number, align 4
  %12 = tail call ptr @proto_tree_add_item(ptr noundef %1, i32 noundef %11, ptr noundef %0, i32 noundef 25, i32 noundef 4, i32 noundef 0)
  %.021 = add i8 %3, -6
  %13 = icmp ugt i8 %.021, 5
  br i1 %13, label %.lr.ph, label %.loopexit

.lr.ph:                                           ; preds = %8, %.lr.ph
  %.023 = phi i8 [ %.0, %.lr.ph ], [ %.021, %8 ]
  %.122 = phi i32 [ %16, %.lr.ph ], [ 29, %8 ]
  %14 = load i32, ptr @hf_rdm_pd_endpoint_responders_uid, align 4
  %15 = tail call ptr @proto_tree_add_item(ptr noundef %1, i32 noundef %14, ptr noundef %0, i32 noundef %.122, i32 noundef 6, i32 noundef 0)
  %16 = add nuw nsw i32 %.122, 6
  %.0 = add i8 %.023, -6
  %17 = icmp ugt i8 %.0, 5
  br i1 %17, label %.lr.ph, label %.loopexit, !llvm.loop !10

.loopexit:                                        ; preds = %.lr.ph, %8, %5, %4
  %.020 = phi i32 [ 23, %4 ], [ 25, %5 ], [ 29, %8 ], [ %16, %.lr.ph ]
  ret i32 %.020
}